target datalayout = "e-m:e-p270:32:32-p271:32:32-p272:64:64-i64:64-i128:128-f80:128-n8:16:32:64-S128"
target triple = "x86_64-pc-linux-gnu"

%struct.Odc_Man_t_ = type { i32, i32, i32, i32, i32, i32, ptr, ptr, ptr, ptr, i32, i32, i32, ptr, i16, i16, ptr, i32, ptr, i32, i32, ptr, ptr, ptr, i32, i32, i32, i32, i32, i32, i64, i64, i64, i64, i64, i64, i64, i64 }
%struct.Vec_Ptr_t_ = type { i32, i32, ptr }

; Function Attrs: inlinehint nounwind uwtable
define internal ptr @Vec_PtrEntry(ptr noundef %0, i32 noundef %1) #5 {
  %3 = alloca ptr, align 8
  %4 = alloca i32, align 4
  store ptr %0, ptr %3, align 8, !tbaa !47
  store i32 %1, ptr %4, align 4, !tbaa !3
  %5 = load ptr, ptr %3, align 8, !tbaa !47
  %6 = getelementptr inbounds nuw %struct.Vec_Ptr_t_, ptr %5, i32 0, i32 2
  %7 = load ptr, ptr %6, align 8, !tbaa !51
  %8 = load i32, ptr %4, align 4, !tbaa !3
  %9 = sext i32 %8 to i64
  %10 = getelementptr inbounds ptr, ptr %7, i64 %9
  %11 = load ptr, ptr %10, align 8, !tbaa !57
  ret ptr %11
}

; Function Attrs: inlinehint nounwind uwtable
define internal ptr @Odc_ObjTruth(ptr noundef %0, i16 noundef zeroext %1) #5 {
  %3 = alloca ptr, align 8
  %4 = alloca i16, align 2
  store ptr %0, ptr %3, align 8, !tbaa !7
  store i16 %1, ptr %4, align 2, !tbaa !59
  %5 = load ptr, ptr %3, align 8, !tbaa !7
  %6 = getelementptr inbounds nuw %struct.Odc_Man_t_, ptr %5, i32 0, i32 21
  %7 = load ptr, ptr %6, align 8, !tbaa !40
  %8 = load i16, ptr %4, align 2, !tbaa !59
  %9 = zext i16 %8 to i32
  %10 = ashr i32 %9, 1
  %11 = call ptr @Vec_PtrEntry(ptr noundef %7, i32 noundef %10)
  ret ptr %11
}

; Function Attrs: inlinehint nounwind uwtable
define internal zeroext i16 @Odc_Var(ptr noundef %0, i32 noundef %1) #5 {
  %3 = alloca ptr, align 8
  %4 = alloca i32, align 4
  store ptr %0, ptr %3, align 8, !tbaa !7
  store i32 %1, ptr %4, align 4, !tbaa !3
  %5 = load i32, ptr %4, align 4, !tbaa !3
  %6 = add nsw i32 %5, 1
  %7 = shl i32 %6, 1
  %8 = trunc i32 %7 to i16
  ret i16 %8
}

; Function Attrs: nounwind uwtable
define i32 @Abc_NtkDontCareCountMintsWord(ptr noundef %0, ptr noundef %1) #0 {
  %3 = alloca ptr, align 8
  %4 = alloca ptr, align 8
  %5 = alloca i32, align 4
  %6 = alloca i32, align 4
  store ptr %0, ptr %3, align 8, !tbaa !7
  store ptr %1, ptr %4, align 8, !tbaa !42
  call void @llvm.lifetime.start.p0(i64 4, ptr %5) #10
  call void @llvm.lifetime.start.p0(i64 4, ptr %6) #10
  store i32 0, ptr %6, align 4, !tbaa !3
  store i32 0, ptr %5, align 4, !tbaa !3
  br label %7

7:                                                ; preds = %24, %2
  %8 = load i32, ptr %5, align 4, !tbaa !3
  %9 = load ptr, ptr %3, align 8, !tbaa !7
  %10 = getelementptr inbounds nuw %struct.Odc_Man_t_, ptr %9, i32 0, i32 20
  %11 = load i32, ptr %10, align 4, !tbaa !38
  %12 = icmp slt i32 %8, %11
  br i1 %12, label %13, label %27

13:                                               ; preds = %7
  %14 = load ptr, ptr %4, align 8, !tbaa !42
  %15 = load i32, ptr %5, align 4, !tbaa !3
  %16 = sext i32 %15 to i64
  %17 = getelementptr inbounds i32, ptr %14, i64 %16
  %18 = load i32, ptr %17, align 4, !tbaa !3
  %19 = icmp ne i32 %18, 0
  br i1 %19, label %20, label %23

20:                                               ; preds = %13
  %21 = load i32, ptr %6, align 4, !tbaa !3
  %22 = add nsw i32 %21, 1
  store i32 %22, ptr %6, align 4, !tbaa !3
  br label %23

23:                                               ; preds = %20, %13
  br label %24

24:                                               ; preds = %23
  %25 = load i32, ptr %5, align 4, !tbaa !3
  %26 = add nsw i32 %25, 1
  store i32 %26, ptr %5, align 4, !tbaa !3
  br label %7, !llvm.loop !132

27:                                               ; preds = %7
  %28 = load i32, ptr %6, align 4, !tbaa !3
  call void @llvm.lifetime.end.p0(i64 4, ptr %6) #10
  call void @llvm.lifetime.end.p0(i64 4, ptr %5) #10
  ret i32 %28
}

; Function Attrs: nounwind uwtable
define void @Abc_NtkDontCareSimulateSetRand(ptr noundef %0) #0 {
  %2 = alloca ptr, align 8
  %3 = alloca ptr, align 8
  %4 = alloca i32, align 4
  %5 = alloca i32, align 4
  %6 = alloca i32, align 4
  store ptr %0, ptr %2, align 8, !tbaa !7
  call void @llvm.lifetime.start.p0(i64 8, ptr %3) #10
  call void @llvm.lifetime.start.p0(i64 4, ptr %4) #10
  call void @llvm.lifetime.start.p0(i64 4, ptr %5) #10
  call void @llvm.lifetime.start.p0(i64 4, ptr %6) #10
  store i32 0, ptr %4, align 4, !tbaa !3
  br label %7

7:                                                ; preds = %41, %1
  %8 = load i32, ptr %4, align 4, !tbaa !3
  %9 = load ptr, ptr %2, align 8, !tbaa !7
  %10 = getelementptr inbounds nuw %struct.Odc_Man_t_, ptr %9, i32 0, i32 20
  %11 = load i32, ptr %10, align 4, !tbaa !38
  %12 = icmp slt i32 %8, %11
  br i1 %12, label %13, label %44

13:                                               ; preds = %7
  %14 = call i32 @rand() #10
  store i32 %14, ptr %6, align 4, !tbaa !3
  store i32 0, ptr %5, align 4, !tbaa !3
  br label %15

15:                                               ; preds = %37, %13
  %16 = load i32, ptr %5, align 4, !tbaa !3
  %17 = load ptr, ptr %2, align 8, !tbaa !7
  %18 = getelementptr inbounds nuw %struct.Odc_Man_t_, ptr %17, i32 0, i32 0
  %19 = load i32, ptr %18, align 8, !tbaa !10
  %20 = icmp slt i32 %16, %19
  br i1 %20, label %21, label %40

21:                                               ; preds = %15
  %22 = load ptr, ptr %2, align 8, !tbaa !7
  %23 = load ptr, ptr %2, align 8, !tbaa !7
  %24 = load i32, ptr %5, align 4, !tbaa !3
  %25 = call zeroext i16 @Odc_Var(ptr noundef %23, i32 noundef %24)
  %26 = call ptr @Odc_ObjTruth(ptr noundef %22, i16 noundef zeroext %25)
  store ptr %26, ptr %3, align 8, !tbaa !42
  %27 = load i32, ptr %6, align 4, !tbaa !3
  %28 = load i32, ptr %5, align 4, !tbaa !3
  %29 = shl i32 1, %28
  %30 = and i32 %27, %29
  %31 = icmp ne i32 %30, 0
  %32 = select i1 %31, i32 -1, i32 0
  %33 = load ptr, ptr %3, align 8, !tbaa !42
  %34 = load i32, ptr %4, align 4, !tbaa !3
  %35 = sext i32 %34 to i64
  %36 = getelementptr inbounds i32, ptr %33, i64 %35
  store i32 %32, ptr %36, align 4, !tbaa !3
  br label %37

37:                                               ; preds = %21
  %38 = load i32, ptr %5, align 4, !tbaa !3
  %39 = add nsw i32 %38, 1
  store i32 %39, ptr %5, align 4, !tbaa !3
  br label %15, !llvm.loop !130

40:                                               ; preds = %15
  br label %41

41:                                               ; preds = %40
  %42 = load i32, ptr %4, align 4, !tbaa !3
  %43 = add nsw i32 %42, 1
  store i32 %43, ptr %4, align 4, !tbaa !3
  br label %7, !llvm.loop !131

44:                                               ; preds = %7
  call void @llvm.lifetime.end.p0(i64 4, ptr %6) #10
  call void @llvm.lifetime.end.p0(i64 4, ptr %5) #10
  call void @llvm.lifetime.end.p0(i64 4, ptr %4) #10
  call void @llvm.lifetime.end.p0(i64 8, ptr %3) #10
  ret void
}

; Function Attrs: nounwind uwtable
define i32 @Abc_NtkDontCareSimulateBefore(ptr noundef %0, ptr noundef %1) #0 {
  %3 = alloca ptr, align 8
  %4 = alloca ptr, align 8
  %5 = alloca i32, align 4
  %6 = alloca i32, align 4
  %7 = alloca i32, align 4
  %8 = alloca i32, align 4
  store ptr %0, ptr %3, align 8, !tbaa !7
  store ptr %1, ptr %4, align 8, !tbaa !42
  call void @llvm.lifetime.start.p0(i64 4, ptr %5) #10
  store i32 2, ptr %5, align 4, !tbaa !3
  call void @llvm.lifetime.start.p0(i64 4, ptr %6) #10
  call void @llvm.lifetime.start.p0(i64 4, ptr %7) #10
  call void @llvm.lifetime.start.p0(i64 4, ptr %8) #10
  %9 = load ptr, ptr %3, align 8, !tbaa !7
  %10 = getelementptr inbounds nuw %struct.Odc_Man_t_, ptr %9, i32 0, i32 19
  %11 = load i32, ptr %10, align 8, !tbaa !39
  %12 = load ptr, ptr %3, align 8, !tbaa !7
  %13 = getelementptr inbounds nuw %struct.Odc_Man_t_, ptr %12, i32 0, i32 20
  %14 = load i32, ptr %13, align 4, !tbaa !38
  %15 = sdiv i32 %11, %14
  store i32 %15, ptr %6, align 4, !tbaa !3
  store i32 0, ptr %7, align 4, !tbaa !3
  store i32 0, ptr %8, align 4, !tbaa !3
  br label %16

16:                                               ; preds = %30, %2
  %17 = load i32, ptr %8, align 4, !tbaa !3
  %18 = load i32, ptr %5, align 4, !tbaa !3
  %19 = icmp slt i32 %17, %18
  br i1 %19, label %20, label %33

20:                                               ; preds = %16
  %21 = load ptr, ptr %3, align 8, !tbaa !7
  call void @Abc_NtkDontCareSimulateSetRand(ptr noundef %21)
  %22 = load ptr, ptr %3, align 8, !tbaa !7
  %23 = load ptr, ptr %4, align 8, !tbaa !42
  %24 = call i32 @Abc_NtkDontCareSimulate(ptr noundef %22, ptr noundef %23)
  %25 = load ptr, ptr %3, align 8, !tbaa !7
  %26 = load ptr, ptr %4, align 8, !tbaa !42
  %27 = call i32 @Abc_NtkDontCareCountMintsWord(ptr noundef %25, ptr noundef %26)
  %28 = load i32, ptr %7, align 4, !tbaa !3
  %29 = add nsw i32 %28, %27
  store i32 %29, ptr %7, align 4, !tbaa !3
  br label %30

30:                                               ; preds = %20
  %31 = load i32, ptr %8, align 4, !tbaa !3
  %32 = add nsw i32 %31, 1
  store i32 %32, ptr %8, align 4, !tbaa !3
  br label %16, !llvm.loop !139

33:                                               ; preds = %16
  %34 = load i32, ptr %7, align 4, !tbaa !3
  %35 = load i32, ptr %6, align 4, !tbaa !3
  %36 = mul nsw i32 %34, %35
  %37 = load i32, ptr %5, align 4, !tbaa !3
  %38 = sdiv i32 %36, %37
  store i32 %38, ptr %7, align 4, !tbaa !3
  %39 = load i32, ptr %7, align 4, !tbaa !3
  call void @llvm.lifetime.end.p0(i64 4, ptr %8) #10
  call void @llvm.lifetime.end.p0(i64 4, ptr %7) #10
  call void @llvm.lifetime.end.p0(i64 4, ptr %6) #10
  call void @llvm.lifetime.end.p0(i64 4, ptr %5) #10
  ret i32 %39
}