; Function Attrs: nounwind uwtable
define range(i32 -1073741824, 1073741824) i32 @Abc_NtkDontCareSimulateBefore(ptr noundef %0, ptr noundef captures(none) %1) local_unnamed_addr #0 {
  %3 = getelementptr inbounds nuw i8, ptr %0, i64 112
  %4 = load i32, ptr %3, align 8, !tbaa !43
  %5 = getelementptr inbounds nuw i8, ptr %0, i64 116
  %6 = load i32, ptr %5, align 4, !tbaa !42
  %7 = getelementptr i8, ptr %0, i64 120
  br label %8

8:                                                ; preds = %2, %Abc_NtkDontCareCountMintsWord.exit
  %9 = phi i32 [ %6, %2 ], [ %31, %Abc_NtkDontCareCountMintsWord.exit ]
  %10 = phi i1 [ true, %2 ], [ false, %Abc_NtkDontCareCountMintsWord.exit ]
  %.01420 = phi i32 [ 0, %2 ], [ %36, %Abc_NtkDontCareCountMintsWord.exit ]
  %11 = icmp sgt i32 %9, 0
  br i1 %11, label %.lr.ph16.i, label %Abc_NtkDontCareSimulateSetRand.exit

.lr.ph16.i:                                       ; preds = %8, %._crit_edge.i
  %indvars.iv.i = phi i64 [ %indvars.iv.next.i, %._crit_edge.i ], [ 0, %8 ]
  %12 = tail call i32 @rand() #19
  %13 = load i32, ptr %0, align 8, !tbaa !3
  %14 = icmp sgt i32 %13, 0
  br i1 %14, label %.lr.ph.i, label %._crit_edge.i

.lr.ph.i:                                         ; preds = %.lr.ph16.i
  %.val.i = load ptr, ptr %7, align 8, !tbaa !46
  %15 = getelementptr i8, ptr %.val.i, i64 8
  %.val.val.i = load ptr, ptr %15, align 8, !tbaa !24
  br label %16

16:                                               ; preds = %16, %.lr.ph.i
  %.01213.i = phi i32 [ 0, %.lr.ph.i ], [ %narrow.i, %16 ]
  %narrow.i = add nuw nsw i32 %.01213.i, 1
  %17 = and i32 %narrow.i, 32767
  %18 = zext nneg i32 %17 to i64
  %19 = getelementptr inbounds nuw ptr, ptr %.val.val.i, i64 %18
  %20 = load ptr, ptr %19, align 8, !tbaa !44
  %21 = shl nuw i32 1, %.01213.i
  %22 = and i32 %21, %12
  %.not.i = icmp ne i32 %22, 0
  %23 = sext i1 %.not.i to i32
  %24 = getelementptr inbounds nuw i32, ptr %20, i64 %indvars.iv.i
  store i32 %23, ptr %24, align 4, !tbaa !48
  %25 = load i32, ptr %0, align 8, !tbaa !3
  %26 = icmp slt i32 %narrow.i, %25
  br i1 %26, label %16, label %._crit_edge.i, !llvm.loop !128

._crit_edge.i:                                    ; preds = %16, %.lr.ph16.i
  %indvars.iv.next.i = add nuw nsw i64 %indvars.iv.i, 1
  %27 = load i32, ptr %5, align 4, !tbaa !42
  %28 = sext i32 %27 to i64
  %29 = icmp slt i64 %indvars.iv.next.i, %28
  br i1 %29, label %.lr.ph16.i, label %Abc_NtkDontCareSimulateSetRand.exit, !llvm.loop !129

Abc_NtkDontCareSimulateSetRand.exit:              ; preds = %._crit_edge.i, %8
  %30 = tail call i32 @Abc_NtkDontCareSimulate(ptr noundef nonnull %0, ptr noundef %1)
  %31 = load i32, ptr %5, align 4, !tbaa !42
  %32 = icmp sgt i32 %31, 0
  br i1 %32, label %.lr.ph.preheader.i, label %Abc_NtkDontCareCountMintsWord.exit

.lr.ph.preheader.i:                               ; preds = %Abc_NtkDontCareSimulateSetRand.exit
  %wide.trip.count.i = zext nneg i32 %31 to i64
  br label %.lr.ph.i16

.lr.ph.i16:                                       ; preds = %.lr.ph.i16, %.lr.ph.preheader.i
  %indvars.iv.i17 = phi i64 [ 0, %.lr.ph.preheader.i ], [ %indvars.iv.next.i19, %.lr.ph.i16 ]
  %.08.i = phi i32 [ 0, %.lr.ph.preheader.i ], [ %spec.select.i, %.lr.ph.i16 ]
  %33 = getelementptr inbounds nuw i32, ptr %1, i64 %indvars.iv.i17
  %34 = load i32, ptr %33, align 4, !tbaa !48
  %.not.i18 = icmp ne i32 %34, 0
  %35 = zext i1 %.not.i18 to i32
  %spec.select.i = add nuw nsw i32 %.08.i, %35
  %indvars.iv.next.i19 = add nuw nsw i64 %indvars.iv.i17, 1
  %exitcond.not.i = icmp eq i64 %indvars.iv.next.i19, %wide.trip.count.i
  br i1 %exitcond.not.i, label %Abc_NtkDontCareCountMintsWord.exit, label %.lr.ph.i16, !llvm.loop !130

Abc_NtkDontCareCountMintsWord.exit:               ; preds = %.lr.ph.i16, %Abc_NtkDontCareSimulateSetRand.exit
  %.0.lcssa.i = phi i32 [ 0, %Abc_NtkDontCareSimulateSetRand.exit ], [ %spec.select.i, %.lr.ph.i16 ]
  %36 = add nsw i32 %.0.lcssa.i, %.01420
  br i1 %10, label %8, label %37, !llvm.loop !137

37:                                               ; preds = %Abc_NtkDontCareCountMintsWord.exit
  %38 = sdiv i32 %4, %6
  %39 = mul nsw i32 %38, %36
  %40 = sdiv i32 %39, 2
  ret i32 %40
}